(lp0
((I252
I0
I255
tp1
F3.6
tp2
a((I24
I255
I0
tp3
F3.399
tp4
a((I0
I255
I8
tp5
F0.25
tp6
a((I255
I0
I25
tp7
F0.25
tp8
a((I0
I42
I255
tp9
F0.25
tp10
a((I255
I157
I0
tp11
F0.25
tp12
a((I0
I255
I183
tp13
F0.25
tp14
a((I255
I0
I240
tp15
F0.25
tp16
a((I0
I255
I8
tp17
F0.25
tp18
a((I255
I0
I25
tp19
F0.25
tp20
a((I0
I42
I255
tp21
F0.25
tp22
a((I255
I157
I0
tp23
F0.25
tp24
a((I0
I255
I183
tp25
F0.25
tp26
a((I255
I0
I240
tp27
F0.25
tp28
a((I0
I255
I8
tp29
F0.25
tp30
a((I255
I0
I25
tp31
F0.25
tp32
a((I0
I42
I255
tp33
F0.25
tp34
a((I255
I157
I0
tp35
F0.25
tp36
a((I0
I255
I183
tp37
F0.25
tp38
a((I255
I0
I240
tp39
F0.25
tp40
a((I0
I255
I8
tp41
F0.25
tp42
a((I255
I0
I25
tp43
F0.25
tp44
a((I0
I42
I255
tp45
F0.25
tp46
a((I255
I157
I0
tp47
F0.25
tp48
a((I0
I255
I183
tp49
F0.25
tp50
a((I255
I0
I240
tp51
F0.25
tp52
a((I0
I255
I8
tp53
F0.25
tp54
a((I255
I0
I25
tp55
F0.25
tp56
a((I0
I42
I255
tp57
F0.25
tp58
a((I255
I157
I0
tp59
F0.25
tp60
a((I0
I255
I183
tp61
F0.25
tp62
a((I255
I0
I240
tp63
F0.25
tp64
a((I0
I255
I8
tp65
F0.25
tp66
a((I255
I0
I25
tp67
F0.25
tp68
a((I0
I42
I255
tp69
F0.25
tp70
a((I255
I157
I0
tp71
F0.25
tp72
a((I0
I255
I183
tp73
F0.25
tp74
a((I255
I0
I240
tp75
F0.25
tp76
a((I0
I255
I8
tp77
F0.25
tp78
a((I255
I0
I25
tp79
F0.25
tp80
a((I0
I42
I255
tp81
F0.25
tp82
a((I255
I157
I0
tp83
F0.25
tp84
a((I0
I255
I183
tp85
F0.25
tp86
a((I255
I0
I240
tp87
F0.25
tp88
a((I0
I255
I8
tp89
F0.25
tp90
a((I255
I0
I25
tp91
F0.25
tp92
a((I0
I42
I255
tp93
F0.241
tp94
a((I255
I157
I0
tp95
F0.25
tp96
a.